; Function Attrs: mustprogress nofree norecurse nosync nounwind willreturn memory(argmem: readwrite) uwtable
define internal noundef zeroext i1 @_ZNSt17_Function_handlerIFvvEZN5Yosys10Functional6Writer10print_withIZN12_GLOBAL__N_19CxxModule14write_eval_defERS3_EUlNS2_4NodeEE_JNSt7__cxx1112basic_stringIcSt11char_traitsIcESaIcEEEEEEvT_PKcDpOT0_EUlvE_E10_M_managerERSt9_Any_dataRKSO_St18_Manager_operation(ptr noundef nonnull writeonly align 8 captures(none) dereferenceable(16) %0, ptr noundef nonnull align 8 dereferenceable(16) %1, i32 noundef %2) #23 align 2 personality ptr @__gxx_personality_v0 {
  switch i32 %2, label %_ZNSt14_Function_base13_Base_managerIZN5Yosys10Functional6Writer10print_withIZN12_GLOBAL__N_19CxxModule14write_eval_defERS3_EUlNS2_4NodeEE_JNSt7__cxx1112basic_stringIcSt11char_traitsIcESaIcEEEEEEvT_PKcDpOT0_EUlvE_E10_M_managerERSt9_Any_dataRKSO_St18_Manager_operation.exit [
    i32 0, label %4
    i32 1, label %5
    i32 2, label %6
  ]

4:                                                ; preds = %3
  store ptr @_ZTIZN5Yosys10Functional6Writer10print_withIZN12_GLOBAL__N_19CxxModule14write_eval_defERS1_EUlNS0_4NodeEE_JNSt7__cxx1112basic_stringIcSt11char_traitsIcESaIcEEEEEEvT_PKcDpOT0_EUlvE_, ptr %0, align 8, !tbaa !457
  br label %_ZNSt14_Function_base13_Base_managerIZN5Yosys10Functional6Writer10print_withIZN12_GLOBAL__N_19CxxModule14write_eval_defERS3_EUlNS2_4NodeEE_JNSt7__cxx1112basic_stringIcSt11char_traitsIcESaIcEEEEEEvT_PKcDpOT0_EUlvE_E10_M_managerERSt9_Any_dataRKSO_St18_Manager_operation.exit

5:                                                ; preds = %3
  store ptr %1, ptr %0, align 8, !tbaa !459
  br label %_ZNSt14_Function_base13_Base_managerIZN5Yosys10Functional6Writer10print_withIZN12_GLOBAL__N_19CxxModule14write_eval_defERS3_EUlNS2_4NodeEE_JNSt7__cxx1112basic_stringIcSt11char_traitsIcESaIcEEEEEEvT_PKcDpOT0_EUlvE_E10_M_managerERSt9_Any_dataRKSO_St18_Manager_operation.exit

6:                                                ; preds = %3
  tail call void @llvm.memcpy.p0.p0.i64(ptr noundef nonnull align 8 dereferenceable(16) %0, ptr noundef nonnull readonly align 8 dereferenceable(16) %1, i64 16, i1 false), !tbaa.struct !460
  br label %_ZNSt14_Function_base13_Base_managerIZN5Yosys10Functional6Writer10print_withIZN12_GLOBAL__N_19CxxModule14write_eval_defERS3_EUlNS2_4NodeEE_JNSt7__cxx1112basic_stringIcSt11char_traitsIcESaIcEEEEEEvT_PKcDpOT0_EUlvE_E10_M_managerERSt9_Any_dataRKSO_St18_Manager_operation.exit

_ZNSt14_Function_base13_Base_managerIZN5Yosys10Functional6Writer10print_withIZN12_GLOBAL__N_19CxxModule14write_eval_defERS3_EUlNS2_4NodeEE_JNSt7__cxx1112basic_stringIcSt11char_traitsIcESaIcEEEEEEvT_PKcDpOT0_EUlvE_E10_M_managerERSt9_Any_dataRKSO_St18_Manager_operation.exit: ; preds = %3, %6, %5, %4
  ret i1 false
}